target datalayout = "e-m:e-p270:32:32-p271:32:32-p272:64:64-i64:64-i128:128-f80:128-n8:16:32:64-S128"
target triple = "x86_64-pc-linux-gnu"

@.str.2 = private unnamed_addr constant [65 x i8] c"8542D69E4C044F18E8B92435BF6FF7DE457283915C45517D722EDB8B08F1DFC3\00", align 1
@.str.3 = private unnamed_addr constant [65 x i8] c"787968B4FA32C3FD2417842E73BBFEFF2F3C848B6831D7E0EC65228B3937E498\00", align 1
@.str.4 = private unnamed_addr constant [65 x i8] c"63E4C6D3B23B0C849CF84241484BFE48F61D59A5B16BA06E6E12D1DA27C5249A\00", align 1
@.str.5 = private unnamed_addr constant [65 x i8] c"421DEBD61B62EAB6746434EBC3CC315E32220B3BADD50BDC4C4E6C147FEDD43D\00", align 1
@.str.6 = private unnamed_addr constant [65 x i8] c"0680512BCBB42C07D47349D2153B70C4E5D7FDFCBFA36EA1A85841B9E46E09A2\00", align 1
@.str.7 = private unnamed_addr constant [65 x i8] c"8542D69E4C044F18E8B92435BF6FF7DD297720630485628D5AE74EE7C32E79B7\00", align 1
@.str.8 = private unnamed_addr constant [2 x i8] c"1\00", align 1
@.str.9 = private unnamed_addr constant [36 x i8] c"../openssl/test/sm2_internal_test.c\00", align 1
@.str.10 = private unnamed_addr constant [11 x i8] c"test_group\00", align 1
@.str.11 = private unnamed_addr constant [65 x i8] c"1649AB77A00637BD5E2EFE283FBF353534AA7F7CB89463F208DDBC2920BB0DA0\00", align 1
@.str.12 = private unnamed_addr constant [20 x i8] c"encryption standard\00", align 1
@.str.13 = private unnamed_addr constant [199 x i8] c"004C62EEFD6ECFC2B95B92FD6C3D9575148AFA17425546D49018E5388D49DD7B4F0092e8ff62146873c258557548500ab2df2a365e0609ab67640a1f6d57d7b17820008349312695a3e1d2f46905f39a766487f2432e95d6be0cb009fe8c69fd8825a7\00", align 1
@.str.15 = private unnamed_addr constant [199 x i8] c"004C62EEFD6ECFC2B95B92FD6C3D9575148AFA17425546D49018E5388D49DD7B4F003da18008784352192d70f22c26c243174a447ba272fec64163dd4742bae8bc9800df17605cf304e9dd1dfeb90c015e93b393a6f046792f790a6fa4228af67d9588\00", align 1
@.str.17 = private unnamed_addr constant [65 x i8] c"fffffffeffffffffffffffffffffffffffffffff00000000ffffffffffffffff\00", align 1
@.str.18 = private unnamed_addr constant [65 x i8] c"fffffffeffffffffffffffffffffffffffffffff00000000fffffffffffffffc\00", align 1
@.str.19 = private unnamed_addr constant [65 x i8] c"28e9fa9e9d9f5e344d5a9e4bcf6509a7f39789f515ab8f92ddbcbd414d940e93\00", align 1
@.str.20 = private unnamed_addr constant [65 x i8] c"32c4ae2c1f1981195f9904466a39c9948fe30bbff2660be1715a4589334c74c7\00", align 1
@.str.21 = private unnamed_addr constant [65 x i8] c"bc3736a2f4f6779c59bdcee36b692153d0a9877cc62a474002df32e52139f0a0\00", align 1
@.str.22 = private unnamed_addr constant [65 x i8] c"fffffffeffffffffffffffffffffffff7203df6b21c6052b53bbf40939d54123\00", align 1
@.str.23 = private unnamed_addr constant [9 x i8] c"gm_group\00", align 1
@.str.24 = private unnamed_addr constant [65 x i8] c"3945208F7B2144B13F36E38AC6D39F95889393692860B51A42FB81EF4DF7C5B8\00", align 1
@.str.25 = private unnamed_addr constant [65 x i8] c"59276E27D506861A16680F3AD9C02DCCEF3CC1FA3CDBE4CE6D54B80DEAC1BC21\00", align 1

; Function Attrs: nounwind uwtable
define internal i32 @sm2_crypt_test() #0 {
  %1 = alloca i32, align 4
  %2 = alloca ptr, align 8
  %3 = alloca ptr, align 8
  call void @llvm.lifetime.start.p0(i64 4, ptr %1) #4
  store i32 0, ptr %1, align 4, !tbaa !9
  call void @llvm.lifetime.start.p0(i64 8, ptr %2) #4
  store ptr null, ptr %2, align 8, !tbaa !11
  call void @llvm.lifetime.start.p0(i64 8, ptr %3) #4
  %4 = call ptr @create_EC_group(ptr noundef @.str.2, ptr noundef @.str.3, ptr noundef @.str.4, ptr noundef @.str.5, ptr noundef @.str.6, ptr noundef @.str.7, ptr noundef @.str.8)
  store ptr %4, ptr %3, align 8, !tbaa !11
  %5 = load ptr, ptr %3, align 8, !tbaa !11
  %6 = call i32 @test_ptr(ptr noundef @.str.9, i32 noundef 223, ptr noundef @.str.10, ptr noundef %5)
  %7 = icmp ne i32 %6, 0
  br i1 %7, label %9, label %8

8:                                                ; preds = %0
  br label %34

9:                                                ; preds = %0
  %10 = load ptr, ptr %3, align 8, !tbaa !11
  %11 = call ptr @EVP_sm3()
  %12 = call i32 @test_sm2_crypt(ptr noundef %10, ptr noundef %11, ptr noundef @.str.11, ptr noundef @.str.12, ptr noundef @.str.13, ptr noundef @.str.14)
  %13 = icmp ne i32 %12, 0
  br i1 %13, label %15, label %14

14:                                               ; preds = %9
  br label %34

15:                                               ; preds = %9
  %16 = load ptr, ptr %3, align 8, !tbaa !11
  %17 = call ptr @EVP_sha256()
  %18 = call i32 @test_sm2_crypt(ptr noundef %16, ptr noundef %17, ptr noundef @.str.11, ptr noundef @.str.12, ptr noundef @.str.15, ptr noundef @.str.16)
  %19 = icmp ne i32 %18, 0
  br i1 %19, label %21, label %20

20:                                               ; preds = %15
  br label %34

21:                                               ; preds = %15
  %22 = call ptr @create_EC_group(ptr noundef @.str.17, ptr noundef @.str.18, ptr noundef @.str.19, ptr noundef @.str.20, ptr noundef @.str.21, ptr noundef @.str.22, ptr noundef @.str.8)
  store ptr %22, ptr %2, align 8, !tbaa !11
  %23 = load ptr, ptr %2, align 8, !tbaa !11
  %24 = call i32 @test_ptr(ptr noundef @.str.9, i32 noundef 265, ptr noundef @.str.23, ptr noundef %23)
  %25 = icmp ne i32 %24, 0
  br i1 %25, label %27, label %26

26:                                               ; preds = %21
  br label %34

27:                                               ; preds = %21
  %28 = load ptr, ptr %2, align 8, !tbaa !11
  %29 = call ptr @EVP_sm3()
  %30 = call i32 @test_sm2_crypt(ptr noundef %28, ptr noundef %29, ptr noundef @.str.24, ptr noundef @.str.12, ptr noundef @.str.25, ptr noundef @.str.26)
  %31 = icmp ne i32 %30, 0
  br i1 %31, label %33, label %32

32:                                               ; preds = %27
  br label %34

33:                                               ; preds = %27
  store i32 1, ptr %1, align 4, !tbaa !9
  br label %34

34:                                               ; preds = %33, %32, %26, %20, %14, %8
  %35 = load ptr, ptr %3, align 8, !tbaa !11
  call void @EC_GROUP_free(ptr noundef %35)
  %36 = load ptr, ptr %2, align 8, !tbaa !11
  call void @EC_GROUP_free(ptr noundef %36)
  %37 = load i32, ptr %1, align 4, !tbaa !9
  call void @llvm.lifetime.end.p0(i64 8, ptr %3) #4
  call void @llvm.lifetime.end.p0(i64 8, ptr %2) #4
  call void @llvm.lifetime.end.p0(i64 4, ptr %1) #4
  ret i32 %37
}