; Function Attrs: nounwind uwtable
define internal range(i32 0, 2) i32 @sm2_crypt_test() #0 {
  %1 = tail call fastcc ptr @create_EC_group(ptr noundef nonnull @.str.2, ptr noundef nonnull @.str.3, ptr noundef nonnull @.str.4, ptr noundef nonnull @.str.5, ptr noundef nonnull @.str.6, ptr noundef nonnull @.str.7)
  %2 = tail call i32 @test_ptr(ptr noundef nonnull @.str.9, i32 noundef 223, ptr noundef nonnull @.str.10, ptr noundef %1) #4
  %.not = icmp eq i32 %2, 0
  br i1 %.not, label %15, label %3

3:                                                ; preds = %0
  %4 = tail call ptr @EVP_sm3() #4
  %5 = tail call fastcc i32 @test_sm2_crypt(ptr noundef %1, ptr noundef %4, ptr noundef nonnull @.str.11, ptr noundef nonnull @.str.13, ptr noundef nonnull @.str.14)
  %.not8 = icmp eq i32 %5, 0
  br i1 %.not8, label %15, label %6

6:                                                ; preds = %3
  %7 = tail call ptr @EVP_sha256() #4
  %8 = tail call fastcc i32 @test_sm2_crypt(ptr noundef %1, ptr noundef %7, ptr noundef nonnull @.str.11, ptr noundef nonnull @.str.15, ptr noundef nonnull @.str.16)
  %.not9 = icmp eq i32 %8, 0
  br i1 %.not9, label %15, label %9

9:                                                ; preds = %6
  %10 = tail call fastcc ptr @create_EC_group(ptr noundef nonnull @.str.17, ptr noundef nonnull @.str.18, ptr noundef nonnull @.str.19, ptr noundef nonnull @.str.20, ptr noundef nonnull @.str.21, ptr noundef nonnull @.str.22)
  %11 = tail call i32 @test_ptr(ptr noundef nonnull @.str.9, i32 noundef 265, ptr noundef nonnull @.str.23, ptr noundef %10) #4
  %.not10 = icmp eq i32 %11, 0
  br i1 %.not10, label %15, label %12

12:                                               ; preds = %9
  %13 = tail call ptr @EVP_sm3() #4
  %14 = tail call fastcc i32 @test_sm2_crypt(ptr noundef %10, ptr noundef %13, ptr noundef nonnull @.str.24, ptr noundef nonnull @.str.25, ptr noundef nonnull @.str.26)
  br label %15

15:                                               ; preds = %12, %9, %6, %3, %0
  %.07 = phi ptr [ %10, %9 ], [ null, %6 ], [ null, %3 ], [ null, %0 ], [ %10, %12 ]
  %.0 = phi i32 [ 0, %9 ], [ 0, %6 ], [ 0, %3 ], [ 0, %0 ], [ %14, %12 ]
  tail call void @EC_GROUP_free(ptr noundef %1) #4
  tail call void @EC_GROUP_free(ptr noundef %.07) #4
  ret i32 %.0
}